target datalayout = "e-m:e-p270:32:32-p271:32:32-p272:64:64-i64:64-i128:128-f80:128-n8:16:32:64-S128"
target triple = "x86_64-pc-linux-gnu"

%struct.bin_info_s = type { i64, i64, i32, i32, %struct.bitmap_info_s }
%struct.bitmap_info_s = type { i64, i64 }
%struct.malloc_mutex_s = type { %union.anon }
%union.anon = type { %struct.anon.1 }
%struct.anon.1 = type { %struct.mutex_prof_data_t, %struct.atomic_b_t, %union.pthread_mutex_t }
%struct.mutex_prof_data_t = type { %struct.nstime_t, %struct.nstime_t, i64, i64, i32, %struct.atomic_u32_t, i64, ptr, i64 }
%struct.nstime_t = type { i64 }
%struct.atomic_u32_t = type { i32 }
%struct.atomic_b_t = type { i8 }
%union.pthread_mutex_t = type { %struct.__pthread_mutex_s }
%struct.__pthread_mutex_s = type { i32, i32, i32, i32, i32, i16, i16, %struct.__pthread_internal_list }
%struct.__pthread_internal_list = type { ptr, ptr }
%struct.atomic_zu_t = type { i64 }
%struct.edata_list_active_t = type { %struct.anon.3 }
%struct.anon.3 = type { ptr }
%struct.edata_heap_t = type { %struct.ph_s }
%struct.ph_s = type { ptr, i64 }
%struct.bin_with_batch_s = type { %struct.bin_s, %struct.batcher_s, [16 x %struct.bin_remote_free_data_s] }
%struct.bin_s = type { %struct.malloc_mutex_s, %struct.bin_stats_s, ptr, %struct.edata_heap_t, %struct.edata_list_active_t }
%struct.bin_stats_s = type { i64, i64, i64, i64, i64, i64, i64, i64, i64, i64, i64, i64, i64, i64 }
%struct.batcher_s = type { %struct.atomic_zu_t, i64, i64, %struct.malloc_mutex_s }
%struct.bin_remote_free_data_s = type { ptr, ptr }

@duckdb_je_bin_infos = external global [36 x %struct.bin_info_s], align 16
@duckdb_je_arena_bin_offsets = global [36 x i32] zeroinitializer, align 16
@duckdb_je_bin_info_nbatched_sizes = external global i32, align 4

; Function Attrs: inlinehint nounwind uwtable
define internal zeroext i1 @arena_bin_has_batch(i32 noundef %0) #3 {
  %2 = alloca i32, align 4
  store i32 %0, ptr %2, align 4, !tbaa !16
  %3 = load i32, ptr %2, align 4, !tbaa !16
  %4 = load i32, ptr @duckdb_je_bin_info_nbatched_sizes, align 4, !tbaa !16
  %5 = icmp ult i32 %3, %4
  ret i1 %5
}

; Function Attrs: inlinehint nounwind uwtable
define internal ptr @arena_get_bin(ptr noundef %0, i32 noundef %1, i32 noundef %2) #3 {
  %4 = alloca ptr, align 8
  %5 = alloca i32, align 4
  %6 = alloca i32, align 4
  %7 = alloca ptr, align 8
  %8 = alloca ptr, align 8
  store ptr %0, ptr %4, align 8, !tbaa !8
  store i32 %1, ptr %5, align 4, !tbaa !16
  store i32 %2, ptr %6, align 4, !tbaa !16
  call void @llvm.lifetime.start.p0(i64 8, ptr %7) #12
  %9 = load ptr, ptr %4, align 8, !tbaa !8
  %10 = load i32, ptr %5, align 4, !tbaa !16
  %11 = zext i32 %10 to i64
  %12 = getelementptr inbounds nuw [36 x i32], ptr @duckdb_je_arena_bin_offsets, i64 0, i64 %11
  %13 = load i32, ptr %12, align 4, !tbaa !16
  %14 = zext i32 %13 to i64
  %15 = getelementptr inbounds nuw i8, ptr %9, i64 %14
  store ptr %15, ptr %7, align 8, !tbaa !133
  call void @llvm.lifetime.start.p0(i64 8, ptr %8) #12
  %16 = load i32, ptr %5, align 4, !tbaa !16
  %17 = call zeroext i1 @arena_bin_has_batch(i32 noundef %16)
  br i1 %17, label %18, label %23

18:                                               ; preds = %3
  %19 = load ptr, ptr %7, align 8, !tbaa !133
  %20 = load i32, ptr %6, align 4, !tbaa !16
  %21 = zext i32 %20 to i64
  %22 = getelementptr inbounds nuw %struct.bin_with_batch_s, ptr %19, i64 %21
  store ptr %22, ptr %8, align 8, !tbaa !133
  br label %28

23:                                               ; preds = %3
  %24 = load ptr, ptr %7, align 8, !tbaa !133
  %25 = load i32, ptr %6, align 4, !tbaa !16
  %26 = zext i32 %25 to i64
  %27 = getelementptr inbounds nuw %struct.bin_s, ptr %24, i64 %26
  store ptr %27, ptr %8, align 8, !tbaa !133
  br label %28

28:                                               ; preds = %23, %18
  br label %29

29:                                               ; preds = %28
  br label %30

30:                                               ; preds = %29
  br label %31

31:                                               ; preds = %30
  %32 = load ptr, ptr %8, align 8, !tbaa !133
  call void @llvm.lifetime.end.p0(i64 8, ptr %8) #12
  call void @llvm.lifetime.end.p0(i64 8, ptr %7) #12
  ret ptr %32
}

; Function Attrs: nounwind uwtable
define void @duckdb_je_arena_prefork8(ptr noundef %0, ptr noundef %1) #0 {
  %3 = alloca ptr, align 8
  %4 = alloca ptr, align 8
  %5 = alloca i32, align 4
  %6 = alloca i32, align 4
  %7 = alloca i32, align 4
  %8 = alloca ptr, align 8
  store ptr %0, ptr %3, align 8, !tbaa !3
  store ptr %1, ptr %4, align 8, !tbaa !8
  call void @llvm.lifetime.start.p0(i64 4, ptr %5) #12
  store i32 0, ptr %5, align 4, !tbaa !16
  br label %9

9:                                                ; preds = %37, %2
  %10 = load i32, ptr %5, align 4, !tbaa !16
  %11 = zext i32 %10 to i64
  %12 = icmp ult i64 %11, 36
  br i1 %12, label %14, label %13

13:                                               ; preds = %9
  store i32 2, ptr %6, align 4
  call void @llvm.lifetime.end.p0(i64 4, ptr %5) #12
  br label %40

14:                                               ; preds = %9
  call void @llvm.lifetime.start.p0(i64 4, ptr %7) #12
  store i32 0, ptr %7, align 4, !tbaa !16
  br label %15

15:                                               ; preds = %33, %14
  %16 = load i32, ptr %7, align 4, !tbaa !16
  %17 = load i32, ptr %5, align 4, !tbaa !16
  %18 = zext i32 %17 to i64
  %19 = getelementptr inbounds nuw [36 x %struct.bin_info_s], ptr @duckdb_je_bin_infos, i64 0, i64 %18
  %20 = getelementptr inbounds nuw %struct.bin_info_s, ptr %19, i32 0, i32 3
  %21 = load i32, ptr %20, align 4, !tbaa !116
  %22 = icmp ult i32 %16, %21
  br i1 %22, label %24, label %23

23:                                               ; preds = %15
  store i32 5, ptr %6, align 4
  call void @llvm.lifetime.end.p0(i64 4, ptr %7) #12
  br label %36

24:                                               ; preds = %15
  call void @llvm.lifetime.start.p0(i64 8, ptr %8) #12
  %25 = load ptr, ptr %4, align 8, !tbaa !8
  %26 = load i32, ptr %5, align 4, !tbaa !16
  %27 = load i32, ptr %7, align 4, !tbaa !16
  %28 = call ptr @arena_get_bin(ptr noundef %25, i32 noundef %26, i32 noundef %27)
  store ptr %28, ptr %8, align 8, !tbaa !133
  %29 = load ptr, ptr %3, align 8, !tbaa !3
  %30 = load ptr, ptr %8, align 8, !tbaa !133
  %31 = load i32, ptr %5, align 4, !tbaa !16
  %32 = call zeroext i1 @arena_bin_has_batch(i32 noundef %31)
  call void @duckdb_je_bin_prefork(ptr noundef %29, ptr noundef %30, i1 noundef zeroext %32)
  call void @llvm.lifetime.end.p0(i64 8, ptr %8) #12
  br label %33

33:                                               ; preds = %24
  %34 = load i32, ptr %7, align 4, !tbaa !16
  %35 = add i32 %34, 1
  store i32 %35, ptr %7, align 4, !tbaa !16
  br label %15

36:                                               ; preds = %23
  br label %37

37:                                               ; preds = %36
  %38 = load i32, ptr %5, align 4, !tbaa !16
  %39 = add i32 %38, 1
  store i32 %39, ptr %5, align 4, !tbaa !16
  br label %9

40:                                               ; preds = %13
  ret void
}